; Function Attrs: nounwind uwtable
define dso_local ptr @abi_arg_new_direct_struct_expand_i32(i8 noundef zeroext %0) local_unnamed_addr #2 {
  %2 = tail call ptr @calloc_arena(i64 noundef 32) #5
  %3 = getelementptr inbounds i8, ptr %2, i64 4
  %4 = load i8, ptr %3, align 4
  %5 = and i8 %4, -64
  %6 = or disjoint i8 %5, 5
  store i8 %6, ptr %3, align 4
  %7 = getelementptr inbounds i8, ptr %2, i64 8
  store i8 %0, ptr %7, align 8
  ret ptr %2
}